target datalayout = "e-m:e-p270:32:32-p271:32:32-p272:64:64-i64:64-i128:128-f80:128-n8:16:32:64-S128"
target triple = "x86_64-pc-linux-gnu"

@.str.1 = private unnamed_addr constant [18 x i8] c"spgquadtreeproc.c\00", align 1
@.str.2 = private unnamed_addr constant [29 x i8] c"getQuadrant: impossible case\00", align 1
@__func__.getQuadrant = private unnamed_addr constant [12 x i8] c"getQuadrant\00", align 1

; Function Attrs: inlinehint nounwind uwtable
define internal i64 @PointerGetDatum(ptr noundef %0) #2 {
  %2 = alloca ptr, align 8
  store ptr %0, ptr %2, align 8
  %3 = load ptr, ptr %2, align 8
  %4 = ptrtoint ptr %3 to i64
  ret i64 %4
}

; Function Attrs: inlinehint nounwind uwtable
define internal zeroext i1 @DatumGetBool(i64 noundef %0) #2 {
  %2 = alloca i64, align 8
  store i64 %0, ptr %2, align 8
  %3 = load i64, ptr %2, align 8
  %4 = icmp ne i64 %3, 0
  ret i1 %4
}

; Function Attrs: inlinehint nounwind uwtable
define internal i64 @PointPGetDatum(ptr noundef %0) #2 {
  %2 = alloca ptr, align 8
  store ptr %0, ptr %2, align 8
  %3 = load ptr, ptr %2, align 8
  %4 = call i64 @PointerGetDatum(ptr noundef %3)
  ret i64 %4
}

; Function Attrs: nounwind uwtable
define internal signext i16 @getQuadrant(ptr noundef %0, ptr noundef %1) #0 {
  %3 = alloca i16, align 2
  %4 = alloca ptr, align 8
  %5 = alloca ptr, align 8
  store ptr %0, ptr %4, align 8
  store ptr %1, ptr %5, align 8
  %6 = load ptr, ptr %5, align 8
  %7 = call i64 @PointPGetDatum(ptr noundef %6)
  %8 = load ptr, ptr %4, align 8
  %9 = call i64 @PointPGetDatum(ptr noundef %8)
  %10 = call i64 @DirectFunctionCall2Coll(ptr noundef @point_above, i32 noundef 0, i64 noundef %7, i64 noundef %9)
  %11 = call zeroext i1 @DatumGetBool(i64 noundef %10)
  br i1 %11, label %19, label %12

12:                                               ; preds = %2
  %13 = load ptr, ptr %5, align 8
  %14 = call i64 @PointPGetDatum(ptr noundef %13)
  %15 = load ptr, ptr %4, align 8
  %16 = call i64 @PointPGetDatum(ptr noundef %15)
  %17 = call i64 @DirectFunctionCall2Coll(ptr noundef @point_horiz, i32 noundef 0, i64 noundef %14, i64 noundef %16)
  %18 = call zeroext i1 @DatumGetBool(i64 noundef %17)
  br i1 %18, label %19, label %34

19:                                               ; preds = %12, %2
  %20 = load ptr, ptr %5, align 8
  %21 = call i64 @PointPGetDatum(ptr noundef %20)
  %22 = load ptr, ptr %4, align 8
  %23 = call i64 @PointPGetDatum(ptr noundef %22)
  %24 = call i64 @DirectFunctionCall2Coll(ptr noundef @point_right, i32 noundef 0, i64 noundef %21, i64 noundef %23)
  %25 = call zeroext i1 @DatumGetBool(i64 noundef %24)
  br i1 %25, label %33, label %26

26:                                               ; preds = %19
  %27 = load ptr, ptr %5, align 8
  %28 = call i64 @PointPGetDatum(ptr noundef %27)
  %29 = load ptr, ptr %4, align 8
  %30 = call i64 @PointPGetDatum(ptr noundef %29)
  %31 = call i64 @DirectFunctionCall2Coll(ptr noundef @point_vert, i32 noundef 0, i64 noundef %28, i64 noundef %30)
  %32 = call zeroext i1 @DatumGetBool(i64 noundef %31)
  br i1 %32, label %33, label %34

33:                                               ; preds = %26, %19
  store i16 1, ptr %3, align 2
  br label %103

34:                                               ; preds = %26, %12
  %35 = load ptr, ptr %5, align 8
  %36 = call i64 @PointPGetDatum(ptr noundef %35)
  %37 = load ptr, ptr %4, align 8
  %38 = call i64 @PointPGetDatum(ptr noundef %37)
  %39 = call i64 @DirectFunctionCall2Coll(ptr noundef @point_below, i32 noundef 0, i64 noundef %36, i64 noundef %38)
  %40 = call zeroext i1 @DatumGetBool(i64 noundef %39)
  br i1 %40, label %41, label %56

41:                                               ; preds = %34
  %42 = load ptr, ptr %5, align 8
  %43 = call i64 @PointPGetDatum(ptr noundef %42)
  %44 = load ptr, ptr %4, align 8
  %45 = call i64 @PointPGetDatum(ptr noundef %44)
  %46 = call i64 @DirectFunctionCall2Coll(ptr noundef @point_right, i32 noundef 0, i64 noundef %43, i64 noundef %45)
  %47 = call zeroext i1 @DatumGetBool(i64 noundef %46)
  br i1 %47, label %55, label %48

48:                                               ; preds = %41
  %49 = load ptr, ptr %5, align 8
  %50 = call i64 @PointPGetDatum(ptr noundef %49)
  %51 = load ptr, ptr %4, align 8
  %52 = call i64 @PointPGetDatum(ptr noundef %51)
  %53 = call i64 @DirectFunctionCall2Coll(ptr noundef @point_vert, i32 noundef 0, i64 noundef %50, i64 noundef %52)
  %54 = call zeroext i1 @DatumGetBool(i64 noundef %53)
  br i1 %54, label %55, label %56

55:                                               ; preds = %48, %41
  store i16 2, ptr %3, align 2
  br label %103

56:                                               ; preds = %48, %34
  %57 = load ptr, ptr %5, align 8
  %58 = call i64 @PointPGetDatum(ptr noundef %57)
  %59 = load ptr, ptr %4, align 8
  %60 = call i64 @PointPGetDatum(ptr noundef %59)
  %61 = call i64 @DirectFunctionCall2Coll(ptr noundef @point_below, i32 noundef 0, i64 noundef %58, i64 noundef %60)
  %62 = call zeroext i1 @DatumGetBool(i64 noundef %61)
  br i1 %62, label %70, label %63

63:                                               ; preds = %56
  %64 = load ptr, ptr %5, align 8
  %65 = call i64 @PointPGetDatum(ptr noundef %64)
  %66 = load ptr, ptr %4, align 8
  %67 = call i64 @PointPGetDatum(ptr noundef %66)
  %68 = call i64 @DirectFunctionCall2Coll(ptr noundef @point_horiz, i32 noundef 0, i64 noundef %65, i64 noundef %67)
  %69 = call zeroext i1 @DatumGetBool(i64 noundef %68)
  br i1 %69, label %70, label %78

70:                                               ; preds = %63, %56
  %71 = load ptr, ptr %5, align 8
  %72 = call i64 @PointPGetDatum(ptr noundef %71)
  %73 = load ptr, ptr %4, align 8
  %74 = call i64 @PointPGetDatum(ptr noundef %73)
  %75 = call i64 @DirectFunctionCall2Coll(ptr noundef @point_left, i32 noundef 0, i64 noundef %72, i64 noundef %74)
  %76 = call zeroext i1 @DatumGetBool(i64 noundef %75)
  br i1 %76, label %77, label %78

77:                                               ; preds = %70
  store i16 3, ptr %3, align 2
  br label %103

78:                                               ; preds = %70, %63
  %79 = load ptr, ptr %5, align 8
  %80 = call i64 @PointPGetDatum(ptr noundef %79)
  %81 = load ptr, ptr %4, align 8
  %82 = call i64 @PointPGetDatum(ptr noundef %81)
  %83 = call i64 @DirectFunctionCall2Coll(ptr noundef @point_above, i32 noundef 0, i64 noundef %80, i64 noundef %82)
  %84 = call zeroext i1 @DatumGetBool(i64 noundef %83)
  br i1 %84, label %85, label %93

85:                                               ; preds = %78
  %86 = load ptr, ptr %5, align 8
  %87 = call i64 @PointPGetDatum(ptr noundef %86)
  %88 = load ptr, ptr %4, align 8
  %89 = call i64 @PointPGetDatum(ptr noundef %88)
  %90 = call i64 @DirectFunctionCall2Coll(ptr noundef @point_left, i32 noundef 0, i64 noundef %87, i64 noundef %89)
  %91 = call zeroext i1 @DatumGetBool(i64 noundef %90)
  br i1 %91, label %92, label %93

92:                                               ; preds = %85
  store i16 4, ptr %3, align 2
  br label %103

93:                                               ; preds = %85, %78
  br label %94

94:                                               ; preds = %93
  br i1 true, label %95, label %97

95:                                               ; preds = %94
  %96 = call zeroext i1 @errstart_cold(i32 noundef 21, ptr noundef null) #7
  br i1 %96, label %99, label %101

97:                                               ; preds = %94
  %98 = call zeroext i1 @errstart(i32 noundef 21, ptr noundef null)
  br i1 %98, label %99, label %101

99:                                               ; preds = %97, %95
  %100 = call i32 (ptr, ...) @errmsg_internal(ptr noundef @.str.2)
  call void @errfinish(ptr noundef @.str.1, i32 noundef 77, ptr noundef @__func__.getQuadrant)
  br label %101

101:                                              ; preds = %99, %97, %95
  unreachable

102:                                              ; No predecessors!
  store i16 0, ptr %3, align 2
  br label %103

103:                                              ; preds = %102, %92, %77, %55, %33
  %104 = load i16, ptr %3, align 2
  ret i16 %104
}