; Function Attrs: nounwind uwtable
define internal fastcc signext range(i16 1, 5) i16 @getQuadrant(ptr noundef %0, ptr noundef %1) unnamed_addr #2 {
  %3 = ptrtoint ptr %1 to i64
  %4 = ptrtoint ptr %0 to i64
  %5 = tail call i64 @DirectFunctionCall2Coll(ptr noundef nonnull @point_above, i32 noundef 0, i64 noundef %3, i64 noundef %4) #7
  %.not = icmp eq i64 %5, 0
  br i1 %.not, label %6, label %8

6:                                                ; preds = %2
  %7 = tail call i64 @DirectFunctionCall2Coll(ptr noundef nonnull @point_horiz, i32 noundef 0, i64 noundef %3, i64 noundef %4) #7
  %.not24 = icmp eq i64 %7, 0
  br i1 %.not24, label %12, label %8

8:                                                ; preds = %6, %2
  %9 = tail call i64 @DirectFunctionCall2Coll(ptr noundef nonnull @point_right, i32 noundef 0, i64 noundef %3, i64 noundef %4) #7
  %.not25 = icmp eq i64 %9, 0
  br i1 %.not25, label %10, label %31

10:                                               ; preds = %8
  %11 = tail call i64 @DirectFunctionCall2Coll(ptr noundef nonnull @point_vert, i32 noundef 0, i64 noundef %3, i64 noundef %4) #7
  %.not26 = icmp eq i64 %11, 0
  br i1 %.not26, label %12, label %31

12:                                               ; preds = %10, %6
  %13 = tail call i64 @DirectFunctionCall2Coll(ptr noundef nonnull @point_below, i32 noundef 0, i64 noundef %3, i64 noundef %4) #7
  %.not27 = icmp eq i64 %13, 0
  br i1 %.not27, label %18, label %14

14:                                               ; preds = %12
  %15 = tail call i64 @DirectFunctionCall2Coll(ptr noundef nonnull @point_right, i32 noundef 0, i64 noundef %3, i64 noundef %4) #7
  %.not28 = icmp eq i64 %15, 0
  br i1 %.not28, label %16, label %31

16:                                               ; preds = %14
  %17 = tail call i64 @DirectFunctionCall2Coll(ptr noundef nonnull @point_vert, i32 noundef 0, i64 noundef %3, i64 noundef %4) #7
  %.not29 = icmp eq i64 %17, 0
  br i1 %.not29, label %18, label %31

18:                                               ; preds = %16, %12
  %19 = tail call i64 @DirectFunctionCall2Coll(ptr noundef nonnull @point_below, i32 noundef 0, i64 noundef %3, i64 noundef %4) #7
  %.not30 = icmp eq i64 %19, 0
  br i1 %.not30, label %20, label %22

20:                                               ; preds = %18
  %21 = tail call i64 @DirectFunctionCall2Coll(ptr noundef nonnull @point_horiz, i32 noundef 0, i64 noundef %3, i64 noundef %4) #7
  %.not31 = icmp eq i64 %21, 0
  br i1 %.not31, label %24, label %22

22:                                               ; preds = %20, %18
  %23 = tail call i64 @DirectFunctionCall2Coll(ptr noundef nonnull @point_left, i32 noundef 0, i64 noundef %3, i64 noundef %4) #7
  %.not32 = icmp eq i64 %23, 0
  br i1 %.not32, label %24, label %31

24:                                               ; preds = %22, %20
  %25 = tail call i64 @DirectFunctionCall2Coll(ptr noundef nonnull @point_above, i32 noundef 0, i64 noundef %3, i64 noundef %4) #7
  %.not33 = icmp eq i64 %25, 0
  br i1 %.not33, label %28, label %26

26:                                               ; preds = %24
  %27 = tail call i64 @DirectFunctionCall2Coll(ptr noundef nonnull @point_left, i32 noundef 0, i64 noundef %3, i64 noundef %4) #7
  %.not34 = icmp eq i64 %27, 0
  br i1 %.not34, label %28, label %31

28:                                               ; preds = %26, %24
  %29 = tail call zeroext i1 @errstart_cold(i32 noundef 21, ptr noundef null) #8
  tail call void @llvm.assume(i1 %29)
  %30 = tail call i32 (ptr, ...) @errmsg_internal(ptr noundef nonnull @.str.2) #7
  tail call void @errfinish(ptr noundef nonnull @.str.1, i32 noundef 77, ptr noundef nonnull @__func__.getQuadrant) #7
  unreachable

31:                                               ; preds = %26, %22, %14, %16, %8, %10
  %.0 = phi i16 [ 1, %10 ], [ 1, %8 ], [ 2, %16 ], [ 2, %14 ], [ 3, %22 ], [ 4, %26 ]
  ret i16 %.0
}